; Function Attrs: null_pointer_is_valid sspstrong uwtable
define internal i32 @dissect_pres_Context_list_item(i1 noundef zeroext %0, ptr noundef %1, i32 noundef %2, ptr noundef %3, ptr noundef %4, i32 noundef %5) #0 {
  store ptr null, ptr @abstract_syntax_name_oid, align 8
  %7 = load i32, ptr @ett_pres_Context_list_item, align 4
  %8 = tail call i32 @dissect_ber_sequence(i1 noundef zeroext %0, ptr noundef %3, ptr noundef %4, ptr noundef %1, i32 noundef %2, ptr noundef nonnull @Context_list_item_sequence, i32 noundef %5, i32 noundef %7)
  %9 = getelementptr inbounds nuw i8, ptr %3, i64 16
  %10 = load ptr, ptr %9, align 8
  %11 = load i32, ptr @presentation_context_identifier, align 4
  %12 = load ptr, ptr @abstract_syntax_name_oid, align 8
  tail call fastcc void @register_ctx_id_and_oid(ptr noundef %10, i32 noundef %11, ptr noundef %12)
  ret i32 %8
}